target datalayout = "e-m:e-p270:32:32-p271:32:32-p272:64:64-i64:64-i128:128-f80:128-n8:16:32:64-S128"
target triple = "x86_64-unknown-linux-gnu"

%"class.node::crypto::ByteSource" = type { ptr, ptr, i64 }

; Function Attrs: mustprogress nounwind uwtable
define linkonce_odr dso_local noundef ptr @_ZNK4node6crypto10ByteSource4dataIvEEPKT_v(ptr noundef nonnull align 8 dereferenceable(24) %this) #4 comdat align 2 {
entry:
  %this.addr = alloca ptr, align 8
  store ptr %this, ptr %this.addr, align 8
  %this1 = load ptr, ptr %this.addr, align 8
  %data_ = getelementptr inbounds %"class.node::crypto::ByteSource", ptr %this1, i32 0, i32 0
  %0 = load ptr, ptr %data_, align 8
  ret ptr %0
}

; Function Attrs: mustprogress nounwind uwtable
define linkonce_odr dso_local noundef i64 @_ZNK4node6crypto10ByteSource4sizeEv(ptr noundef nonnull align 8 dereferenceable(24) %this) #4 comdat align 2 {
entry:
  %this.addr = alloca ptr, align 8
  store ptr %this, ptr %this.addr, align 8
  %this1 = load ptr, ptr %this.addr, align 8
  %size_ = getelementptr inbounds %"class.node::crypto::ByteSource", ptr %this1, i32 0, i32 2
  %0 = load i64, ptr %size_, align 8
  ret i64 %0
}

; Function Attrs: mustprogress nounwind uwtable
define dso_local noundef i32 @_ZN4node6crypto16PasswordCallbackEPciiPv(ptr noundef %buf, i32 noundef %size, i32 noundef %rwflag, ptr noundef %u) #4 {
entry:
  %retval = alloca i32, align 4
  %buf.addr = alloca ptr, align 8
  %size.addr = alloca i32, align 4
  %rwflag.addr = alloca i32, align 4
  %u.addr = alloca ptr, align 8
  %passphrase = alloca ptr, align 8
  %buflen = alloca i64, align 8
  %len = alloca i64, align 8
  store ptr %buf, ptr %buf.addr, align 8
  store i32 %size, ptr %size.addr, align 4
  store i32 %rwflag, ptr %rwflag.addr, align 4
  store ptr %u, ptr %u.addr, align 8
  %0 = load ptr, ptr %u.addr, align 8
  %1 = load ptr, ptr %0, align 8
  store ptr %1, ptr %passphrase, align 8
  %2 = load ptr, ptr %passphrase, align 8
  %cmp = icmp ne ptr %2, null
  br i1 %cmp, label %if.then, label %if.end5

if.then:                                          ; preds = %entry
  %3 = load i32, ptr %size.addr, align 4
  %conv = sext i32 %3 to i64
  store i64 %conv, ptr %buflen, align 8
  %4 = load ptr, ptr %passphrase, align 8
  %call = call noundef i64 @_ZNK4node6crypto10ByteSource4sizeEv(ptr noundef nonnull align 8 dereferenceable(24) %4)
  store i64 %call, ptr %len, align 8
  %5 = load i64, ptr %buflen, align 8
  %6 = load i64, ptr %len, align 8
  %cmp1 = icmp ult i64 %5, %6
  br i1 %cmp1, label %if.then2, label %if.end

if.then2:                                         ; preds = %if.then
  store i32 -1, ptr %retval, align 4
  br label %return

if.end:                                           ; preds = %if.then
  %7 = load ptr, ptr %buf.addr, align 8
  %8 = load ptr, ptr %passphrase, align 8
  %call3 = call noundef ptr @_ZNK4node6crypto10ByteSource4dataIvEEPKT_v(ptr noundef nonnull align 8 dereferenceable(24) %8)
  %9 = load i64, ptr %len, align 8
  call void @llvm.memcpy.p0.p0.i64(ptr align 1 %7, ptr align 1 %call3, i64 %9, i1 false)
  %10 = load i64, ptr %len, align 8
  %conv4 = trunc i64 %10 to i32
  store i32 %conv4, ptr %retval, align 4
  br label %return

if.end5:                                          ; preds = %entry
  store i32 -1, ptr %retval, align 4
  br label %return

return:                                           ; preds = %if.end5, %if.end, %if.then2
  %11 = load i32, ptr %retval, align 4
  ret i32 %11
}