; Function Attrs: mustprogress nofree norecurse nosync nounwind willreturn memory(readwrite, inaccessiblemem: none) uwtable
define dso_local noundef i32 @_ZN4node6crypto16PasswordCallbackEPciiPv(ptr nocapture noundef writeonly %buf, i32 noundef %size, i32 noundef %rwflag, ptr nocapture noundef readonly %u) local_unnamed_addr #5 {
entry:
  %0 = load ptr, ptr %u, align 8
  %cmp.not = icmp eq ptr %0, null
  br i1 %cmp.not, label %return, label %if.then

if.then:                                          ; preds = %entry
  %conv = sext i32 %size to i64
  %size_.i = getelementptr inbounds i8, ptr %0, i64 16
  %1 = load i64, ptr %size_.i, align 8
  %cmp1 = icmp ugt i64 %1, %conv
  br i1 %cmp1, label %return, label %if.end

if.end:                                           ; preds = %if.then
  %2 = load ptr, ptr %0, align 8
  tail call void @llvm.memcpy.p0.p0.i64(ptr align 1 %buf, ptr align 1 %2, i64 %1, i1 false)
  %conv4 = trunc i64 %1 to i32
  br label %return

return:                                           ; preds = %entry, %if.then, %if.end
  %retval.0 = phi i32 [ %conv4, %if.end ], [ -1, %if.then ], [ -1, %entry ]
  ret i32 %retval.0
}